(dp1
S'OriginalConfig'
p2
ccopy_reg
_reconstructor
p3
(cWMCore.Configuration
Configuration
p4
c__builtin__
object
p5
NtRp6
(dp7
S'Site'
p8
g3
(cWMCore.Configuration
ConfigSection
p9
g5
NtRp10
(dp11
S'_internal_skipChecks'
p12
I00
sS'_internal_documentation'
p13
S''
sS'_internal_settings'
p14
c__builtin__
set
p15
((lp16
S'blacklist'
p17
aS'whitelist'
p18
aS'storageSite'
p19
atRp20
sS'_internal_name'
p21
g8
sS'_internal_docstrings'
p22
(dp23
sg17
(lp24
S'T2_TW_NCHC'
p25
aS'T2_BE_IIHE'
p26
asS'_internal_children'
p27
g15
((ltRp28
sg19
S'T3_US_FNALLPC'
p29
sS'_internal_parent_ref'
p30
Nsg18
(lp31
S'T2_RU_ITEP'
p32
aS'T2_DE_*'
p33
aS'T2_EE_*'
p34
aS'T2_ES_*'
p35
aS'T2_FR_*'
p36
aS'T2_GR_*'
p37
aS'T2_HU_*'
p38
aS'T2_IT_*'
p39
aS'T2_RU_*'
p40
aS'T2_UK_*'
p41
asbsS'_internal_sections'
p42
(lp43
S'General'
p44
aS'JobType'
p45
aS'Data'
p46
ag8
aS'User'
p47
aS'Debug'
p48
asg44
g3
(g9
g5
NtRp49
(dp50
S'transferLogs'
p51
I01
sg12
I00
sg13
S''
sg14
g15
((lp52
g51
aS'transferOutputs'
p53
aS'workArea'
p54
aS'requestName'
p55
atRp56
sg21
g44
sg22
(dp57
sg53
I01
sg27
g15
((ltRp58
sg55
S'iDMAnalysis_WW_v2'
p59
sg30
Nsg54
S'2017MC/'
p60
sbsS'_internal_webapps'
p61
(lp62
sg47
g3
(g9
g5
NtRp63
(dp64
g12
I00
sg13
S''
sg14
g15
((ltRp65
sg21
g47
sg22
(dp66
sg27
g15
((ltRp67
sg30
NsbsS'_internal_components'
p68
(lp69
sg48
g3
(g9
g5
NtRp70
(dp71
g12
I00
sg13
S''
sg14
g15
((ltRp72
sg21
g48
sg22
(dp73
sg27
g15
((ltRp74
sg30
Nsbsg46
g3
(g9
g5
NtRp75
(dp76
S'inputDataset'
p77
S'/WW_TuneCP5_13TeV-pythia8/RunIIFall17DRPremix-PU2017_94X_mc2017_realistic_v11-v1/AODSIM'
p78
sg12
I00
sg13
S''
sg14
g15
((lp79
S'publication'
p80
ag77
aS'ignoreLocality'
p81
aS'splitting'
p82
aS'outLFNDirBase'
p83
atRp84
sg81
I01
sg21
g46
sg82
S'Automatic'
p85
sg22
(dp86
sg27
g15
((ltRp87
sg83
S'/store/group/lpcmetx/iDM/Ntuples/2017/backgrounds_seventhrun'
p88
sg30
Nsg80
I00
sbsg45
g3
(g9
g5
NtRp89
(dp90
g12
I00
sS'pyCfgParams'
p91
(lp92
S'data=False'
p93
aS'Run2018D=False'
p94
asg13
S''
sg14
g15
((lp95
S'psetName'
p96
aS'pluginName'
p97
ag91
atRp98
sg21
g45
sg22
(dp99
sg97
S'Analysis'
p100
sg27
g15
((ltRp101
sg96
S'iDMAnalyzer_cfg.py'
p102
sg30
NsbsbsS'voGroup'
p103
S''
sS'Server'
p104
S'cmsweb.cern.ch'
p105
sS'instance'
p106
S'prod'
p107
sS'RequestName'
p108
V191129_193227:mireid_crab_iDMAnalysis_WW_v2
p109
sS'voRole'
p110
S'NULL'
p111
sS'Port'
p112
S''
s.