(dp1
S'OriginalConfig'
p2
ccopy_reg
_reconstructor
p3
(cWMCore.Configuration
Configuration
p4
c__builtin__
object
p5
NtRp6
(dp7
S'Site'
p8
g3
(cWMCore.Configuration
ConfigSection
p9
g5
NtRp10
(dp11
S'_internal_skipChecks'
p12
I00
sS'_internal_documentation'
p13
S''
sS'_internal_settings'
p14
c__builtin__
set
p15
((lp16
S'storageSite'
p17
atRp18
sS'_internal_name'
p19
g8
sS'_internal_docstrings'
p20
(dp21
sS'_internal_children'
p22
g15
((ltRp23
sg17
S'T3_US_FNALLPC'
p24
sS'_internal_parent_ref'
p25
NsbsS'_internal_sections'
p26
(lp27
S'General'
p28
aS'JobType'
p29
aS'Data'
p30
ag8
aS'User'
p31
aS'Debug'
p32
asg28
g3
(g9
g5
NtRp33
(dp34
S'transferLogs'
p35
I01
sg12
I00
sg13
S''
sg14
g15
((lp36
g35
aS'transferOutputs'
p37
aS'workArea'
p38
aS'requestName'
p39
atRp40
sg19
g28
sg20
(dp41
sg37
I01
sg22
g15
((ltRp42
sg39
S'iDMAnalysis_WJetsToLNu_HT-70To100'
p43
sg25
Nsg38
S'crab'
p44
sbsS'_internal_webapps'
p45
(lp46
sg31
g3
(g9
g5
NtRp47
(dp48
g12
I00
sg13
S''
sg14
g15
((ltRp49
sg19
g31
sg20
(dp50
sg22
g15
((ltRp51
sg25
NsbsS'_internal_components'
p52
(lp53
sg32
g3
(g9
g5
NtRp54
(dp55
g12
I00
sg13
S''
sg14
g15
((ltRp56
sg19
g32
sg20
(dp57
sg22
g15
((ltRp58
sg25
Nsbsg30
g3
(g9
g5
NtRp59
(dp60
S'inputDataset'
p61
S'/WJetsToLNu_HT-70To100_TuneCP5_13TeV-madgraphMLM-pythia8/RunIIAutumn18DRPremix-102X_upgrade2018_realistic_v15-v1/AODSIM'
p62
sg12
I00
sg13
S''
sg14
g15
((lp63
S'publication'
p64
ag61
aS'splitting'
p65
aS'outLFNDirBase'
p66
atRp67
sg19
g30
sg65
S'Automatic'
p68
sg20
(dp69
sg22
g15
((ltRp70
sg66
S'/store/group/lpcmetx/iDM/Ntuples/2018/backgrounds'
p71
sg25
Nsg64
I00
sbsg29
g3
(g9
g5
NtRp72
(dp73
g12
I00
sg13
S''
sg14
g15
((lp74
S'psetName'
p75
aS'pluginName'
p76
atRp77
sg19
g29
sg20
(dp78
sg76
S'Analysis'
p79
sg22
g15
((ltRp80
sg75
S'iDMAnalyzer_cfg.py'
p81
sg25
NsbsbsS'voGroup'
p82
S''
sS'Server'
p83
S'cmsweb.cern.ch'
p84
sS'instance'
p85
S'prod'
p86
sS'RequestName'
p87
V190701_164241:mireid_crab_iDMAnalysis_WJetsToLNu_HT-70To100
p88
sS'voRole'
p89
S'NULL'
p90
sS'Port'
p91
S''
s.