(dp1
S'OriginalConfig'
p2
ccopy_reg
_reconstructor
p3
(cWMCore.Configuration
Configuration
p4
c__builtin__
object
p5
NtRp6
(dp7
S'Site'
p8
g3
(cWMCore.Configuration
ConfigSection
p9
g5
NtRp10
(dp11
S'_internal_skipChecks'
p12
I00
sS'_internal_documentation'
p13
S''
sS'_internal_settings'
p14
c__builtin__
set
p15
((lp16
S'blacklist'
p17
aS'storageSite'
p18
atRp19
sS'_internal_name'
p20
g8
sS'_internal_docstrings'
p21
(dp22
sg17
(lp23
S'T2_TW_NCHC'
p24
aS'T2_BE_IIHE'
p25
asS'_internal_children'
p26
g15
((ltRp27
sg18
S'T3_US_FNALLPC'
p28
sS'_internal_parent_ref'
p29
NsbsS'_internal_sections'
p30
(lp31
S'General'
p32
aS'JobType'
p33
aS'Data'
p34
ag8
aS'User'
p35
aS'Debug'
p36
asg32
g3
(g9
g5
NtRp37
(dp38
S'transferLogs'
p39
I01
sg12
I00
sg13
S''
sg14
g15
((lp40
g39
aS'transferOutputs'
p41
aS'workArea'
p42
aS'requestName'
p43
atRp44
sg20
g32
sg21
(dp45
sg41
I01
sg26
g15
((ltRp46
sg43
S'iDMAnalysis_QCD_HT300To500_v2'
p47
sg29
Nsg42
S'2017MC'
p48
sbsS'_internal_webapps'
p49
(lp50
sg35
g3
(g9
g5
NtRp51
(dp52
g12
I00
sg13
S''
sg14
g15
((ltRp53
sg20
g35
sg21
(dp54
sg26
g15
((ltRp55
sg29
NsbsS'_internal_components'
p56
(lp57
sg36
g3
(g9
g5
NtRp58
(dp59
g12
I00
sg13
S''
sg14
g15
((ltRp60
sg20
g36
sg21
(dp61
sg26
g15
((ltRp62
sg29
Nsbsg34
g3
(g9
g5
NtRp63
(dp64
S'inputDataset'
p65
S'/QCD_HT300to500_TuneCP5_13TeV-madgraph-pythia8/RunIIFall17DRPremix-PU2017_94X_mc2017_realistic_v11-v1/AODSIM'
p66
sg12
I00
sg13
S''
sg14
g15
((lp67
S'publication'
p68
ag65
aS'splitting'
p69
aS'outLFNDirBase'
p70
atRp71
sg20
g34
sg69
S'Automatic'
p72
sg21
(dp73
sg26
g15
((ltRp74
sg70
S'/store/group/lpcmetx/iDM/Ntuples/2017/backgrounds_seventhrun'
p75
sg29
Nsg68
I00
sbsg33
g3
(g9
g5
NtRp76
(dp77
g12
I00
sS'pyCfgParams'
p78
(lp79
S'data=False'
p80
aS'Run2018D=False'
p81
asg13
S''
sg14
g15
((lp82
S'psetName'
p83
aS'pluginName'
p84
ag78
atRp85
sg20
g33
sg21
(dp86
sg84
S'Analysis'
p87
sg26
g15
((ltRp88
sg83
S'iDMAnalyzer_cfg.py'
p89
sg29
NsbsbsS'voGroup'
p90
S''
sS'Server'
p91
S'cmsweb.cern.ch'
p92
sS'instance'
p93
S'prod'
p94
sS'RequestName'
p95
V191126_160247:mireid_crab_iDMAnalysis_QCD_HT300To500_v2
p96
sS'voRole'
p97
S'NULL'
p98
sS'Port'
p99
S''
s.